target datalayout = "e-m:e-p270:32:32-p271:32:32-p272:64:64-i64:64-i128:128-f80:128-n8:16:32:64-S128"
target triple = "x86_64-pc-linux-gnu"

; Function Attrs: nounwind uwtable
define i32 @Abc_ZddPerm2Comb(ptr noundef %0, i32 noundef %1, ptr noundef %2) #0 {
  %4 = alloca ptr, align 8
  %5 = alloca i32, align 4
  %6 = alloca ptr, align 8
  %7 = alloca i32, align 4
  %8 = alloca i32, align 4
  %9 = alloca i32, align 4
  %10 = alloca i32, align 4
  store ptr %0, ptr %4, align 8, !tbaa !8
  store i32 %1, ptr %5, align 4, !tbaa !10
  store ptr %2, ptr %6, align 8, !tbaa !8
  call void @llvm.lifetime.start.p0(i64 4, ptr %7) #12
  call void @llvm.lifetime.start.p0(i64 4, ptr %8) #12
  call void @llvm.lifetime.start.p0(i64 4, ptr %9) #12
  store i32 0, ptr %9, align 4, !tbaa !10
  store i32 0, ptr %7, align 4, !tbaa !10
  br label %11

11:                                               ; preds = %73, %3
  %12 = load i32, ptr %7, align 4, !tbaa !10
  %13 = load i32, ptr %5, align 4, !tbaa !10
  %14 = icmp slt i32 %12, %13
  br i1 %14, label %15, label %76

15:                                               ; preds = %11
  %16 = load i32, ptr %7, align 4, !tbaa !10
  %17 = load ptr, ptr %4, align 8, !tbaa !8
  %18 = load i32, ptr %7, align 4, !tbaa !10
  %19 = sext i32 %18 to i64
  %20 = getelementptr inbounds i32, ptr %17, i64 %19
  %21 = load i32, ptr %20, align 4, !tbaa !10
  %22 = icmp ne i32 %16, %21
  br i1 %22, label %23, label %72

23:                                               ; preds = %15
  %24 = load i32, ptr %7, align 4, !tbaa !10
  %25 = add nsw i32 %24, 1
  store i32 %25, ptr %8, align 4, !tbaa !10
  br label %26

26:                                               ; preds = %40, %23
  %27 = load i32, ptr %8, align 4, !tbaa !10
  %28 = load i32, ptr %5, align 4, !tbaa !10
  %29 = icmp slt i32 %27, %28
  br i1 %29, label %30, label %43

30:                                               ; preds = %26
  %31 = load i32, ptr %7, align 4, !tbaa !10
  %32 = load ptr, ptr %4, align 8, !tbaa !8
  %33 = load i32, ptr %8, align 4, !tbaa !10
  %34 = sext i32 %33 to i64
  %35 = getelementptr inbounds i32, ptr %32, i64 %34
  %36 = load i32, ptr %35, align 4, !tbaa !10
  %37 = icmp eq i32 %31, %36
  br i1 %37, label %38, label %39

38:                                               ; preds = %30
  br label %43

39:                                               ; preds = %30
  br label %40

40:                                               ; preds = %39
  %41 = load i32, ptr %8, align 4, !tbaa !10
  %42 = add nsw i32 %41, 1
  store i32 %42, ptr %8, align 4, !tbaa !10
  br label %26, !llvm.loop !62

43:                                               ; preds = %38, %26
  %44 = load i32, ptr %7, align 4, !tbaa !10
  %45 = shl i32 %44, 16
  %46 = load i32, ptr %8, align 4, !tbaa !10
  %47 = or i32 %45, %46
  %48 = load ptr, ptr %6, align 8, !tbaa !8
  %49 = load i32, ptr %9, align 4, !tbaa !10
  %50 = add nsw i32 %49, 1
  store i32 %50, ptr %9, align 4, !tbaa !10
  %51 = sext i32 %49 to i64
  %52 = getelementptr inbounds i32, ptr %48, i64 %51
  store i32 %47, ptr %52, align 4, !tbaa !10
  call void @llvm.lifetime.start.p0(i64 4, ptr %10) #12
  %53 = load ptr, ptr %4, align 8, !tbaa !8
  %54 = load i32, ptr %7, align 4, !tbaa !10
  %55 = sext i32 %54 to i64
  %56 = getelementptr inbounds i32, ptr %53, i64 %55
  %57 = load i32, ptr %56, align 4, !tbaa !10
  store i32 %57, ptr %10, align 4, !tbaa !10
  %58 = load ptr, ptr %4, align 8, !tbaa !8
  %59 = load i32, ptr %8, align 4, !tbaa !10
  %60 = sext i32 %59 to i64
  %61 = getelementptr inbounds i32, ptr %58, i64 %60
  %62 = load i32, ptr %61, align 4, !tbaa !10
  %63 = load ptr, ptr %4, align 8, !tbaa !8
  %64 = load i32, ptr %7, align 4, !tbaa !10
  %65 = sext i32 %64 to i64
  %66 = getelementptr inbounds i32, ptr %63, i64 %65
  store i32 %62, ptr %66, align 4, !tbaa !10
  %67 = load i32, ptr %10, align 4, !tbaa !10
  %68 = load ptr, ptr %4, align 8, !tbaa !8
  %69 = load i32, ptr %8, align 4, !tbaa !10
  %70 = sext i32 %69 to i64
  %71 = getelementptr inbounds i32, ptr %68, i64 %70
  store i32 %67, ptr %71, align 4, !tbaa !10
  call void @llvm.lifetime.end.p0(i64 4, ptr %10) #12
  br label %72

72:                                               ; preds = %43, %15
  br label %73

73:                                               ; preds = %72
  %74 = load i32, ptr %7, align 4, !tbaa !10
  %75 = add nsw i32 %74, 1
  store i32 %75, ptr %7, align 4, !tbaa !10
  br label %11, !llvm.loop !63

76:                                               ; preds = %11
  %77 = load i32, ptr %9, align 4, !tbaa !10
  call void @llvm.lifetime.end.p0(i64 4, ptr %9) #12
  call void @llvm.lifetime.end.p0(i64 4, ptr %8) #12
  call void @llvm.lifetime.end.p0(i64 4, ptr %7) #12
  ret i32 %77
}