; Function Attrs: nofree norecurse nosync nounwind memory(argmem: readwrite) uwtable
define i32 @Abc_ZddPerm2Comb(ptr noundef captures(none) %0, i32 noundef %1, ptr noundef writeonly captures(none) %2) local_unnamed_addr #11 {
  %4 = icmp sgt i32 %1, 0
  br i1 %4, label %.lr.ph.preheader, label %._crit_edge

.lr.ph.preheader:                                 ; preds = %3
  %5 = add nsw i32 %1, -1
  %wide.trip.count35 = zext nneg i32 %1 to i64
  %wide.trip.count = zext i32 %5 to i64
  br label %.lr.ph

.lr.ph:                                           ; preds = %.lr.ph.preheader, %24
  %indvars.iv = phi i64 [ 0, %.lr.ph.preheader ], [ %indvars.iv.next, %24 ]
  %.02629 = phi i32 [ 0, %.lr.ph.preheader ], [ %.1, %24 ]
  %6 = getelementptr inbounds nuw i32, ptr %0, i64 %indvars.iv
  %7 = load i32, ptr %6, align 4, !tbaa !3
  %8 = zext i32 %7 to i64
  %.not = icmp eq i64 %indvars.iv, %8
  br i1 %.not, label %24, label %.preheader

.preheader:                                       ; preds = %.lr.ph, %9
  %indvars.iv31 = phi i64 [ %indvars.iv.next32, %9 ], [ %indvars.iv, %.lr.ph ]
  %exitcond.not = icmp eq i64 %indvars.iv31, %wide.trip.count
  br i1 %exitcond.not, label %split, label %9

9:                                                ; preds = %.preheader
  %indvars.iv.next32 = add nuw nsw i64 %indvars.iv31, 1
  %10 = getelementptr inbounds nuw i32, ptr %0, i64 %indvars.iv.next32
  %11 = load i32, ptr %10, align 4, !tbaa !3
  %12 = zext i32 %11 to i64
  %13 = icmp eq i64 %indvars.iv, %12
  br i1 %13, label %._crit_edge37, label %.preheader, !llvm.loop !54

._crit_edge37:                                    ; preds = %9
  %14 = trunc nuw nsw i64 %indvars.iv.next32 to i32
  %.pre = and i64 %indvars.iv.next32, 4294967295
  br label %split

split:                                            ; preds = %.preheader, %._crit_edge37
  %.pre-phi = phi i64 [ %.pre, %._crit_edge37 ], [ %wide.trip.count35, %.preheader ]
  %.027.lcssa = phi i32 [ %14, %._crit_edge37 ], [ %1, %.preheader ]
  %15 = trunc nuw nsw i64 %indvars.iv to i32
  %16 = shl i32 %15, 16
  %17 = or i32 %.027.lcssa, %16
  %18 = add nsw i32 %.02629, 1
  %19 = sext i32 %.02629 to i64
  %20 = getelementptr inbounds i32, ptr %2, i64 %19
  store i32 %17, ptr %20, align 4, !tbaa !3
  %21 = load i32, ptr %6, align 4, !tbaa !3
  %22 = getelementptr inbounds nuw i32, ptr %0, i64 %.pre-phi
  %23 = load i32, ptr %22, align 4, !tbaa !3
  store i32 %23, ptr %6, align 4, !tbaa !3
  store i32 %21, ptr %22, align 4, !tbaa !3
  br label %24

24:                                               ; preds = %.lr.ph, %split
  %.1 = phi i32 [ %18, %split ], [ %.02629, %.lr.ph ]
  %indvars.iv.next = add nuw nsw i64 %indvars.iv, 1
  %exitcond36.not = icmp eq i64 %indvars.iv.next, %wide.trip.count35
  br i1 %exitcond36.not, label %._crit_edge, label %.lr.ph, !llvm.loop !55

._crit_edge:                                      ; preds = %24, %3
  %.026.lcssa = phi i32 [ 0, %3 ], [ %.1, %24 ]
  ret i32 %.026.lcssa
}